target datalayout = "e-m:e-p270:32:32-p271:32:32-p272:64:64-i64:64-i128:128-f80:128-n8:16:32:64-S128"
target triple = "x86_64-pc-linux-gnu"

%struct.FT_LzwStateRec_ = type { i32, i32, [16 x i8], i32, i32, i8, i64, i32, i32, i32, i32, i32, i32, i32, i32, i32, ptr, ptr, i32, ptr, i32, i64, [64 x i8], ptr, ptr }

; Function Attrs: nounwind uwtable
define hidden void @ft_lzwstate_reset(ptr noundef %0) #0 {
  %2 = alloca ptr, align 8
  store ptr %0, ptr %2, align 8, !tbaa !24
  %3 = load ptr, ptr %2, align 8, !tbaa !24
  %4 = getelementptr inbounds nuw %struct.FT_LzwStateRec_, ptr %3, i32 0, i32 1
  store i32 0, ptr %4, align 4, !tbaa !37
  %5 = load ptr, ptr %2, align 8, !tbaa !24
  %6 = getelementptr inbounds nuw %struct.FT_LzwStateRec_, ptr %5, i32 0, i32 3
  store i32 0, ptr %6, align 8, !tbaa !38
  %7 = load ptr, ptr %2, align 8, !tbaa !24
  %8 = getelementptr inbounds nuw %struct.FT_LzwStateRec_, ptr %7, i32 0, i32 4
  store i32 0, ptr %8, align 4, !tbaa !39
  %9 = load ptr, ptr %2, align 8, !tbaa !24
  %10 = getelementptr inbounds nuw %struct.FT_LzwStateRec_, ptr %9, i32 0, i32 5
  store i8 0, ptr %10, align 8, !tbaa !40
  %11 = load ptr, ptr %2, align 8, !tbaa !24
  %12 = getelementptr inbounds nuw %struct.FT_LzwStateRec_, ptr %11, i32 0, i32 6
  store i64 0, ptr %12, align 8, !tbaa !41
  %13 = load ptr, ptr %2, align 8, !tbaa !24
  %14 = getelementptr inbounds nuw %struct.FT_LzwStateRec_, ptr %13, i32 0, i32 20
  store i32 0, ptr %14, align 8, !tbaa !42
  %15 = load ptr, ptr %2, align 8, !tbaa !24
  %16 = getelementptr inbounds nuw %struct.FT_LzwStateRec_, ptr %15, i32 0, i32 10
  store i32 9, ptr %16, align 4, !tbaa !43
  %17 = load ptr, ptr %2, align 8, !tbaa !24
  %18 = getelementptr inbounds nuw %struct.FT_LzwStateRec_, ptr %17, i32 0, i32 0
  store i32 0, ptr %18, align 8, !tbaa !44
  ret void
}