; Function Attrs: mustprogress nofree norecurse nosync nounwind willreturn memory(argmem: write) uwtable
define hidden void @ft_lzwstate_reset(ptr noundef writeonly captures(none) initializes((0, 8), (24, 33), (40, 48), (60, 64), (120, 124)) %0) local_unnamed_addr #4 {
  %2 = getelementptr inbounds nuw i8, ptr %0, i64 4
  store i32 0, ptr %2, align 4, !tbaa !34
  %3 = getelementptr inbounds nuw i8, ptr %0, i64 24
  %4 = getelementptr inbounds nuw i8, ptr %0, i64 40
  store i64 0, ptr %4, align 8, !tbaa !35
  %5 = getelementptr inbounds nuw i8, ptr %0, i64 120
  store i32 0, ptr %5, align 8, !tbaa !36
  %6 = getelementptr inbounds nuw i8, ptr %0, i64 60
  tail call void @llvm.memset.p0.i64(ptr noundef nonnull align 8 dereferenceable(9) %3, i8 0, i64 9, i1 false)
  store i32 9, ptr %6, align 4, !tbaa !28
  store i32 0, ptr %0, align 8, !tbaa !37
  ret void
}